	.arch armv5te
	.eabi_attribute 23, 1
	.eabi_attribute 24, 1
	.eabi_attribute 25, 1
	.eabi_attribute 26, 1
	.eabi_attribute 30, 6
	.eabi_attribute 34, 0
	.eabi_attribute 18, 4
	.file	"CMOL.c"
	.global	periodic_table
	.data
	.align	2
	.type	periodic_table, %object
	.size	periodic_table, 872
periodic_table:
	.ascii	"H\000"
	.space	1
	.space	1
	.word	10079
	.ascii	"He\000"
	.space	1
	.word	40026
	.ascii	"Li\000"
	.space	1
	.word	69410
	.ascii	"Be\000"
	.space	1
	.word	90122
	.ascii	"B\000"
	.space	1
	.space	1
	.word	108110
	.ascii	"C\000"
	.space	1
	.space	1
	.word	120107
	.ascii	"N\000"
	.space	1
	.space	1
	.word	140067
	.ascii	"O\000"
	.space	1
	.space	1
	.word	159994
	.ascii	"F\000"
	.space	1
	.space	1
	.word	189984
	.ascii	"Ne\000"
	.space	1
	.word	201797
	.ascii	"Na\000"
	.space	1
	.word	229897
	.ascii	"Mg\000"
	.space	1
	.word	243050
	.ascii	"Al\000"
	.space	1
	.word	269815
	.ascii	"Si\000"
	.space	1
	.word	280855
	.ascii	"P\000"
	.space	1
	.space	1
	.word	309738
	.ascii	"S\000"
	.space	1
	.space	1
	.word	320650
	.ascii	"Cl\000"
	.space	1
	.word	354530
	.ascii	"K\000"
	.space	1
	.space	1
	.word	390983
	.ascii	"Ar\000"
	.space	1
	.word	399480
	.ascii	"Ca\000"
	.space	1
	.word	400780
	.ascii	"Sc\000"
	.space	1
	.word	449559
	.ascii	"Ti\000"
	.space	1
	.word	478670
	.ascii	"V\000"
	.space	1
	.space	1
	.word	509415
	.ascii	"Cr\000"
	.space	1
	.word	519961
	.ascii	"Mn\000"
	.space	1
	.word	549380
	.ascii	"Fe\000"
	.space	1
	.word	558450
	.ascii	"Ni\000"
	.space	1
	.word	586934
	.ascii	"Co\000"
	.space	1
	.word	589332
	.ascii	"Cu\000"
	.space	1
	.word	635460
	.ascii	"Zn\000"
	.space	1
	.word	653900
	.ascii	"Ga\000"
	.space	1
	.word	697230
	.ascii	"Ge\000"
	.space	1
	.word	726400
	.ascii	"As\000"
	.space	1
	.word	749216
	.ascii	"Se\000"
	.space	1
	.word	789600
	.ascii	"Br\000"
	.space	1
	.word	799040
	.ascii	"Kr\000"
	.space	1
	.word	838000
	.ascii	"Rb\000"
	.space	1
	.word	854678
	.ascii	"Sr\000"
	.space	1
	.word	876200
	.ascii	"Y\000"
	.space	1
	.space	1
	.word	889059
	.ascii	"Zr\000"
	.space	1
	.word	912240
	.ascii	"Nb\000"
	.space	1
	.word	929064
	.ascii	"Mo\000"
	.space	1
	.word	959400
	.ascii	"Tc\000"
	.space	1
	.word	980000
	.ascii	"Ru\000"
	.space	1
	.word	1010700
	.ascii	"Rh\000"
	.space	1
	.word	1029055
	.ascii	"Pd\000"
	.space	1
	.word	1064200
	.ascii	"Ag\000"
	.space	1
	.word	1078682
	.ascii	"Cd\000"
	.space	1
	.word	1124110
	.ascii	"In\000"
	.space	1
	.word	1148180
	.ascii	"Sn\000"
	.space	1
	.word	1187100
	.ascii	"Sb\000"
	.space	1
	.word	1217600
	.ascii	"I\000"
	.space	1
	.space	1
	.word	1269045
	.ascii	"Te\000"
	.space	1
	.word	1276000
	.ascii	"Xe\000"
	.space	1
	.word	1312930
	.ascii	"Cs\000"
	.space	1
	.word	1329055
	.ascii	"Ba\000"
	.space	1
	.word	1373270
	.ascii	"La\000"
	.space	1
	.word	1389055
	.ascii	"Ce\000"
	.space	1
	.word	1401160
	.ascii	"Pr\000"
	.space	1
	.word	1409077
	.ascii	"Nd\000"
	.space	1
	.word	1442400
	.ascii	"Pm\000"
	.space	1
	.word	1450000
	.ascii	"Sm\000"
	.space	1
	.word	1503600
	.ascii	"Eu\000"
	.space	1
	.word	1519640
	.ascii	"Gd\000"
	.space	1
	.word	1572500
	.ascii	"Tb\000"
	.space	1
	.word	1589253
	.ascii	"Dy\000"
	.space	1
	.word	1625000
	.ascii	"Ho\000"
	.space	1
	.word	1649303
	.ascii	"Er\000"
	.space	1
	.word	1672590
	.ascii	"Tm\000"
	.space	1
	.word	1689342
	.ascii	"Yb\000"
	.space	1
	.word	1730400
	.ascii	"Lu\000"
	.space	1
	.word	1749670
	.ascii	"Hf\000"
	.space	1
	.word	1784900
	.ascii	"Ta\000"
	.space	1
	.word	1809479
	.ascii	"W\000"
	.space	1
	.space	1
	.word	1838400
	.ascii	"Re\000"
	.space	1
	.word	1862070
	.ascii	"Os\000"
	.space	1
	.word	1902300
	.ascii	"Ir\000"
	.space	1
	.word	1922170
	.ascii	"Pt\000"
	.space	1
	.word	1950780
	.ascii	"Au\000"
	.space	1
	.word	1969665
	.ascii	"Hg\000"
	.space	1
	.word	2005900
	.ascii	"Tl\000"
	.space	1
	.word	2043833
	.ascii	"Pb\000"
	.space	1
	.word	2072000
	.ascii	"Bi\000"
	.space	1
	.word	2089804
	.ascii	"Po\000"
	.space	1
	.word	2090000
	.ascii	"At\000"
	.space	1
	.word	2100000
	.ascii	"Rn\000"
	.space	1
	.word	2220000
	.ascii	"Fr\000"
	.space	1
	.word	2230000
	.ascii	"Ra\000"
	.space	1
	.word	2260000
	.ascii	"Ac\000"
	.space	1
	.word	2270000
	.ascii	"Pa\000"
	.space	1
	.word	2310359
	.ascii	"Th\000"
	.space	1
	.word	2320381
	.ascii	"Np\000"
	.space	1
	.word	2370000
	.ascii	"U\000"
	.space	1
	.space	1
	.word	2380289
	.ascii	"Am\000"
	.space	1
	.word	2430000
	.ascii	"Pu\000"
	.space	1
	.word	2440000
	.ascii	"Cm\000"
	.space	1
	.word	2470000
	.ascii	"Bk\000"
	.space	1
	.word	2470000
	.ascii	"Cf\000"
	.space	1
	.word	2510000
	.ascii	"Es\000"
	.space	1
	.word	2520000
	.ascii	"Fm\000"
	.space	1
	.word	2570000
	.ascii	"Md\000"
	.space	1
	.word	2580000
	.ascii	"No\000"
	.space	1
	.word	2590000
	.ascii	"Rf\000"
	.space	1
	.word	2610000
	.ascii	"Lr\000"
	.space	1
	.word	2620000
	.ascii	"Db\000"
	.space	1
	.word	2620000
	.ascii	"Bh\000"
	.space	1
	.word	2640000
	.ascii	"Sg\000"
	.space	1
	.word	2660000
	.ascii	"Mt\000"
	.space	1
	.word	2680000
	.ascii	"Hs\000"
	.space	1
	.word	2770000
	.section	.rodata
	.align	2
.LC0:
	.ascii	"El peso molecular es: %d.%04d g/mol\012\000"
	.text
	.align	2
	.global	printComaFija
	.syntax unified
	.arm
	.fpu softvfp
	.type	printComaFija, %function
printComaFija:
	@ args = 0, pretend = 0, frame = 16
	@ frame_needed = 0, uses_anonymous_args = 0
	str	lr, [sp, #-4]!
	sub	sp, sp, #20
	str	r0, [sp, #4]
	ldr	r3, [sp, #4]
	ldr	r2, .L2
	smull	r1, r2, r3, r2
	asr	r2, r2, #12
	asr	r3, r3, #31
	sub	r3, r2, r3
	str	r3, [sp, #12]
	ldr	r3, [sp, #4]
	ldr	r2, .L2
	smull	r1, r2, r3, r2
	asr	r1, r2, #12
	asr	r2, r3, #31
	sub	r2, r1, r2
	ldr	r1, .L2+4
	mul	r2, r1, r2
	sub	r3, r3, r2
	str	r3, [sp, #8]
	ldr	r2, [sp, #8]
	ldr	r1, [sp, #12]
	ldr	r0, .L2+8
	bl	GARLIC_printf
	nop
	add	sp, sp, #20
	@ sp needed
	ldr	pc, [sp], #4
.L3:
	.align	2
.L2:
	.word	1759218605
	.word	10000
	.word	.LC0
	.size	printComaFija, .-printComaFija
	.align	2
	.global	get_atomic_weight
	.syntax unified
	.arm
	.fpu softvfp
	.type	get_atomic_weight, %function
get_atomic_weight:
	@ args = 0, pretend = 0, frame = 16
	@ frame_needed = 0, uses_anonymous_args = 0
	@ link register save eliminated.
	sub	sp, sp, #16
	str	r0, [sp, #4]
	mov	r3, #0
	str	r3, [sp, #12]
	b	.L5
.L9:
	ldr	r3, [sp, #4]
	ldrb	r2, [r3]	@ zero_extendqisi2
	ldr	r1, .L10
	ldr	r3, [sp, #12]
	ldrb	r3, [r1, r3, lsl #3]	@ zero_extendqisi2
	cmp	r2, r3
	bne	.L6
	ldr	r2, .L10
	ldr	r3, [sp, #12]
	lsl	r3, r3, #3
	add	r3, r2, r3
	ldrb	r2, [r3, #1]	@ zero_extendqisi2
	ldr	r3, [sp, #4]
	add	r3, r3, #1
	ldrb	r3, [r3]	@ zero_extendqisi2
	cmp	r2, r3
	beq	.L7
	ldr	r2, .L10
	ldr	r3, [sp, #12]
	lsl	r3, r3, #3
	add	r3, r2, r3
	ldrb	r3, [r3, #1]	@ zero_extendqisi2
	cmp	r3, #0
	bne	.L6
.L7:
	ldr	r2, .L10
	ldr	r3, [sp, #12]
	lsl	r3, r3, #3
	add	r3, r2, r3
	ldr	r3, [r3, #4]
	b	.L8
.L6:
	ldr	r3, [sp, #12]
	add	r3, r3, #1
	str	r3, [sp, #12]
.L5:
	ldr	r3, [sp, #12]
	cmp	r3, #108
	bls	.L9
	mov	r3, #0
.L8:
	mov	r0, r3
	add	sp, sp, #16
	@ sp needed
	bx	lr
.L11:
	.align	2
.L10:
	.word	periodic_table
	.size	get_atomic_weight, .-get_atomic_weight
	.section	.rodata
	.align	2
.LC1:
	.ascii	"NaCl\000"
	.text
	.align	2
	.global	_start
	.syntax unified
	.arm
	.fpu softvfp
	.type	_start, %function
_start:
	@ args = 0, pretend = 0, frame = 32
	@ frame_needed = 0, uses_anonymous_args = 0
	str	lr, [sp, #-4]!
	sub	sp, sp, #36
	str	r0, [sp, #4]
	mov	r3, #0
	str	r3, [sp, #28]
	add	r3, sp, #12
	mov	r2, #0
	strh	r2, [r3]	@ movhi
	strb	r2, [r3, #2]
	mov	r3, #0
	str	r3, [sp, #24]
	mov	r3, #0
	str	r3, [sp, #20]
	ldr	r3, .L20
	str	r3, [sp, #16]
	b	.L13
.L18:
	ldr	r3, [sp, #20]
	ldr	r2, [sp, #16]
	add	r3, r2, r3
	ldrb	r3, [r3]	@ zero_extendqisi2
	cmp	r3, #64
	bls	.L14
	ldr	r3, [sp, #20]
	ldr	r2, [sp, #16]
	add	r3, r2, r3
	ldrb	r3, [r3]	@ zero_extendqisi2
	cmp	r3, #90
	bhi	.L14
	ldrb	r3, [sp, #12]	@ zero_extendqisi2
	cmp	r3, #0
	beq	.L15
	add	r3, sp, #12
	mov	r0, r3
	bl	get_atomic_weight
	mov	r2, r0
	ldr	r3, [sp, #24]
	cmp	r3, #1
	movge	r3, r3
	movlt	r3, #1
	mul	r3, r2, r3
	ldr	r2, [sp, #28]
	add	r3, r2, r3
	str	r3, [sp, #28]
.L15:
	ldr	r3, [sp, #20]
	ldr	r2, [sp, #16]
	add	r3, r2, r3
	ldrb	r3, [r3]	@ zero_extendqisi2
	strb	r3, [sp, #12]
	mov	r3, #0
	strb	r3, [sp, #13]
	mov	r3, #0
	str	r3, [sp, #24]
	b	.L16
.L14:
	ldr	r3, [sp, #20]
	ldr	r2, [sp, #16]
	add	r3, r2, r3
	ldrb	r3, [r3]	@ zero_extendqisi2
	cmp	r3, #96
	bls	.L17
	ldr	r3, [sp, #20]
	ldr	r2, [sp, #16]
	add	r3, r2, r3
	ldrb	r3, [r3]	@ zero_extendqisi2
	cmp	r3, #122
	bhi	.L17
	ldr	r3, [sp, #20]
	ldr	r2, [sp, #16]
	add	r3, r2, r3
	ldrb	r3, [r3]	@ zero_extendqisi2
	strb	r3, [sp, #13]
	mov	r3, #0
	strb	r3, [sp, #14]
	b	.L16
.L17:
	ldr	r3, [sp, #20]
	ldr	r2, [sp, #16]
	add	r3, r2, r3
	ldrb	r3, [r3]	@ zero_extendqisi2
	cmp	r3, #47
	bls	.L16
	ldr	r3, [sp, #20]
	ldr	r2, [sp, #16]
	add	r3, r2, r3
	ldrb	r3, [r3]	@ zero_extendqisi2
	cmp	r3, #57
	bhi	.L16
	ldr	r2, [sp, #24]
	mov	r3, r2
	lsl	r3, r3, #2
	add	r3, r3, r2
	lsl	r3, r3, #1
	mov	r1, r3
	ldr	r3, [sp, #20]
	ldr	r2, [sp, #16]
	add	r3, r2, r3
	ldrb	r3, [r3]	@ zero_extendqisi2
	sub	r3, r3, #48
	add	r3, r1, r3
	str	r3, [sp, #24]
.L16:
	ldr	r3, [sp, #20]
	add	r3, r3, #1
	str	r3, [sp, #20]
.L13:
	ldr	r3, [sp, #20]
	ldr	r2, [sp, #16]
	add	r3, r2, r3
	ldrb	r3, [r3]	@ zero_extendqisi2
	cmp	r3, #0
	bne	.L18
	ldrb	r3, [sp, #12]	@ zero_extendqisi2
	cmp	r3, #0
	beq	.L19
	add	r3, sp, #12
	mov	r0, r3
	bl	get_atomic_weight
	mov	r2, r0
	ldr	r3, [sp, #24]
	cmp	r3, #1
	movge	r3, r3
	movlt	r3, #1
	mul	r3, r2, r3
	ldr	r2, [sp, #28]
	add	r3, r2, r3
	str	r3, [sp, #28]
.L19:
	ldr	r0, [sp, #28]
	bl	printComaFija
	nop
	add	sp, sp, #36
	@ sp needed
	ldr	pc, [sp], #4
.L21:
	.align	2
.L20:
	.word	.LC1
	.size	_start, .-_start
	.ident	"GCC: (devkitARM release 46) 6.3.0"
